target datalayout = "e-m:e-p270:32:32-p271:32:32-p272:64:64-i64:64-i128:128-f80:128-n8:16:32:64-S128"
target triple = "x86_64-pc-linux-gnu"

%struct.Node = type { i32 }
%struct.Expr = type { i32 }
%struct.RelabelType = type { %struct.Expr, ptr, i32, i32, i32, i32, i32 }
%struct.ConvertRowtypeExpr = type { %struct.Expr, ptr, i32, i32, i32 }
%struct.CoerceToDomain = type { %struct.Expr, ptr, i32, i32, i32, i32, i32 }
%struct.FuncExpr = type { %struct.Expr, i32, i32, i8, i8, i32, i32, i32, ptr, i32 }
%struct.ArrayCoerceExpr = type { %struct.Expr, ptr, ptr, i32, i32, i32, i32, i32 }
%struct.CoerceViaIO = type { %struct.Expr, ptr, i32, i32, i32, i32 }
%struct.RowExpr = type { %struct.Expr, ptr, i32, i32, ptr, i32 }

@.str.1 = private unnamed_addr constant [15 x i8] c"parse_coerce.c\00", align 1
@.str.42 = private unnamed_addr constant [26 x i8] c"unsupported node type: %d\00", align 1
@__func__.hide_coercion_node = private unnamed_addr constant [19 x i8] c"hide_coercion_node\00", align 1

; Function Attrs: nounwind uwtable
define internal void @hide_coercion_node(ptr noundef %0) #0 {
  %2 = alloca ptr, align 8
  store ptr %0, ptr %2, align 8
  %3 = load ptr, ptr %2, align 8
  %4 = getelementptr inbounds nuw %struct.Node, ptr %3, i32 0, i32 0
  %5 = load i32, ptr %4, align 4
  %6 = icmp eq i32 %5, 15
  br i1 %6, label %7, label %10

7:                                                ; preds = %1
  %8 = load ptr, ptr %2, align 8
  %9 = getelementptr inbounds nuw %struct.FuncExpr, ptr %8, i32 0, i32 5
  store i32 2, ptr %9, align 8
  br label %77

10:                                               ; preds = %1
  %11 = load ptr, ptr %2, align 8
  %12 = getelementptr inbounds nuw %struct.Node, ptr %11, i32 0, i32 0
  %13 = load i32, ptr %12, align 4
  %14 = icmp eq i32 %13, 27
  br i1 %14, label %15, label %18

15:                                               ; preds = %10
  %16 = load ptr, ptr %2, align 8
  %17 = getelementptr inbounds nuw %struct.RelabelType, ptr %16, i32 0, i32 5
  store i32 2, ptr %17, align 4
  br label %76

18:                                               ; preds = %10
  %19 = load ptr, ptr %2, align 8
  %20 = getelementptr inbounds nuw %struct.Node, ptr %19, i32 0, i32 0
  %21 = load i32, ptr %20, align 4
  %22 = icmp eq i32 %21, 28
  br i1 %22, label %23, label %26

23:                                               ; preds = %18
  %24 = load ptr, ptr %2, align 8
  %25 = getelementptr inbounds nuw %struct.CoerceViaIO, ptr %24, i32 0, i32 4
  store i32 2, ptr %25, align 8
  br label %75

26:                                               ; preds = %18
  %27 = load ptr, ptr %2, align 8
  %28 = getelementptr inbounds nuw %struct.Node, ptr %27, i32 0, i32 0
  %29 = load i32, ptr %28, align 4
  %30 = icmp eq i32 %29, 29
  br i1 %30, label %31, label %34

31:                                               ; preds = %26
  %32 = load ptr, ptr %2, align 8
  %33 = getelementptr inbounds nuw %struct.ArrayCoerceExpr, ptr %32, i32 0, i32 6
  store i32 2, ptr %33, align 4
  br label %74

34:                                               ; preds = %26
  %35 = load ptr, ptr %2, align 8
  %36 = getelementptr inbounds nuw %struct.Node, ptr %35, i32 0, i32 0
  %37 = load i32, ptr %36, align 4
  %38 = icmp eq i32 %37, 30
  br i1 %38, label %39, label %42

39:                                               ; preds = %34
  %40 = load ptr, ptr %2, align 8
  %41 = getelementptr inbounds nuw %struct.ConvertRowtypeExpr, ptr %40, i32 0, i32 3
  store i32 2, ptr %41, align 4
  br label %73

42:                                               ; preds = %34
  %43 = load ptr, ptr %2, align 8
  %44 = getelementptr inbounds nuw %struct.Node, ptr %43, i32 0, i32 0
  %45 = load i32, ptr %44, align 4
  %46 = icmp eq i32 %45, 36
  br i1 %46, label %47, label %50

47:                                               ; preds = %42
  %48 = load ptr, ptr %2, align 8
  %49 = getelementptr inbounds nuw %struct.RowExpr, ptr %48, i32 0, i32 3
  store i32 2, ptr %49, align 4
  br label %72

50:                                               ; preds = %42
  %51 = load ptr, ptr %2, align 8
  %52 = getelementptr inbounds nuw %struct.Node, ptr %51, i32 0, i32 0
  %53 = load i32, ptr %52, align 4
  %54 = icmp eq i32 %53, 55
  br i1 %54, label %55, label %58

55:                                               ; preds = %50
  %56 = load ptr, ptr %2, align 8
  %57 = getelementptr inbounds nuw %struct.CoerceToDomain, ptr %56, i32 0, i32 5
  store i32 2, ptr %57, align 4
  br label %71

58:                                               ; preds = %50
  br label %59

59:                                               ; preds = %58
  br i1 true, label %60, label %62

60:                                               ; preds = %59
  %61 = call zeroext i1 @errstart_cold(i32 noundef 21, ptr noundef null) #7
  br i1 %61, label %64, label %69

62:                                               ; preds = %59
  %63 = call zeroext i1 @errstart(i32 noundef 21, ptr noundef null)
  br i1 %63, label %64, label %69

64:                                               ; preds = %62, %60
  %65 = load ptr, ptr %2, align 8
  %66 = getelementptr inbounds nuw %struct.Node, ptr %65, i32 0, i32 0
  %67 = load i32, ptr %66, align 4
  %68 = call i32 (ptr, ...) @errmsg_internal(ptr noundef @.str.42, i32 noundef %67)
  call void @errfinish(ptr noundef @.str.1, i32 noundef 826, ptr noundef @__func__.hide_coercion_node)
  br label %69

69:                                               ; preds = %64, %62, %60
  unreachable

70:                                               ; No predecessors!
  br label %71

71:                                               ; preds = %70, %55
  br label %72

72:                                               ; preds = %71, %47
  br label %73

73:                                               ; preds = %72, %39
  br label %74

74:                                               ; preds = %73, %31
  br label %75

75:                                               ; preds = %74, %23
  br label %76

76:                                               ; preds = %75, %15
  br label %77

77:                                               ; preds = %76, %7
  ret void
}