; Function Attrs: nounwind uwtable
define internal fastcc void @hide_coercion_node(ptr noundef captures(none) %0) unnamed_addr #0 {
  %2 = load i32, ptr %0, align 4
  switch i32 %2, label %17 [
    i32 15, label %3
    i32 27, label %5
    i32 28, label %7
    i32 29, label %9
    i32 30, label %11
    i32 36, label %13
    i32 55, label %15
  ]

3:                                                ; preds = %1
  %4 = getelementptr inbounds nuw i8, ptr %0, i64 16
  store i32 2, ptr %4, align 8
  br label %21

5:                                                ; preds = %1
  %6 = getelementptr inbounds nuw i8, ptr %0, i64 28
  store i32 2, ptr %6, align 4
  br label %21

7:                                                ; preds = %1
  %8 = getelementptr inbounds nuw i8, ptr %0, i64 24
  store i32 2, ptr %8, align 8
  br label %21

9:                                                ; preds = %1
  %10 = getelementptr inbounds nuw i8, ptr %0, i64 36
  store i32 2, ptr %10, align 4
  br label %21

11:                                               ; preds = %1
  %12 = getelementptr inbounds nuw i8, ptr %0, i64 20
  store i32 2, ptr %12, align 4
  br label %21

13:                                               ; preds = %1
  %14 = getelementptr inbounds nuw i8, ptr %0, i64 20
  store i32 2, ptr %14, align 4
  br label %21

15:                                               ; preds = %1
  %16 = getelementptr inbounds nuw i8, ptr %0, i64 28
  store i32 2, ptr %16, align 4
  br label %21

17:                                               ; preds = %1
  %18 = tail call zeroext i1 @errstart_cold(i32 noundef 21, ptr noundef null) #6
  tail call void @llvm.assume(i1 %18)
  %19 = load i32, ptr %0, align 4
  %20 = tail call i32 (ptr, ...) @errmsg_internal(ptr noundef nonnull @.str.42, i32 noundef %19) #5
  tail call void @errfinish(ptr noundef nonnull @.str.1, i32 noundef 826, ptr noundef nonnull @__func__.hide_coercion_node) #5
  unreachable

21:                                               ; preds = %5, %9, %13, %15, %11, %7, %3
  ret void
}